target datalayout = "e-m:e-p270:32:32-p271:32:32-p272:64:64-i64:64-i128:128-f80:128-n8:16:32:64-S128"
target triple = "x86_64-pc-linux-gnu"

%"class.cv::DetectionBasedTracker::SeparateDetectionWork" = type { ptr, ptr, %"struct.cv::Ptr", %"class.std::thread", %"class.std::mutex", %"class.std::condition_variable", %"class.std::condition_variable", %"class.std::vector", i8, i8, i32, %"class.cv::Mat", i64, %"struct.cv::DetectionBasedTracker::Parameters" }
%"struct.cv::Ptr" = type { %"class.std::shared_ptr" }
%"class.std::shared_ptr" = type { %"class.std::__shared_ptr" }
%"class.std::__shared_ptr" = type { ptr, %"class.std::__shared_count" }
%"class.std::__shared_count" = type { ptr }
%"class.std::thread" = type { %"class.std::thread::id" }
%"class.std::thread::id" = type { i64 }
%"class.std::mutex" = type { %"class.std::__mutex_base" }
%"class.std::__mutex_base" = type { %union.pthread_mutex_t }
%union.pthread_mutex_t = type { %struct.__pthread_mutex_s }
%struct.__pthread_mutex_s = type { i32, i32, i32, i32, i32, i16, i16, %struct.__pthread_internal_list }
%struct.__pthread_internal_list = type { ptr, ptr }
%"class.std::condition_variable" = type { %"class.std::__condvar" }
%"class.std::__condvar" = type { %union.pthread_cond_t }
%union.pthread_cond_t = type { %struct.__pthread_cond_s }
%struct.__pthread_cond_s = type { %union.__atomic_wide_counter, %union.__atomic_wide_counter, [2 x i32], [2 x i32], i32, i32, [2 x i32] }
%union.__atomic_wide_counter = type { i64 }
%"class.std::vector" = type { %"struct.std::_Vector_base" }
%"struct.std::_Vector_base" = type { %"struct.std::_Vector_base<cv::Rect_<int>, std::allocator<cv::Rect_<int>>>::_Vector_impl" }
%"struct.std::_Vector_base<cv::Rect_<int>, std::allocator<cv::Rect_<int>>>::_Vector_impl" = type { %"struct.std::_Vector_base<cv::Rect_<int>, std::allocator<cv::Rect_<int>>>::_Vector_impl_data" }
%"struct.std::_Vector_base<cv::Rect_<int>, std::allocator<cv::Rect_<int>>>::_Vector_impl_data" = type { ptr, ptr, ptr }
%"class.cv::Mat" = type { i32, i32, i32, i32, ptr, ptr, ptr, ptr, ptr, ptr, %"struct.cv::MatSize", %"struct.cv::MatStep" }
%"struct.cv::MatSize" = type { ptr }
%"struct.cv::MatStep" = type { ptr, [2 x i64] }
%"struct.cv::DetectionBasedTracker::Parameters" = type { i32, i32 }
%"class.std::unique_lock" = type <{ ptr, i8, [7 x i8] }>

@_ZTIN2cv9ExceptionE = external constant ptr
@_ZTISt9exception = external constant ptr
@.str.2 = private unnamed_addr constant [40 x i8] c"\0A %s: ERROR: UNKNOWN Exception caught\0A\0A\00", align 1
@__func__._ZN2cv31workcycleObjectDetectorFunctionEPv = private unnamed_addr constant [32 x i8] c"workcycleObjectDetectorFunction\00", align 1
@.str.3 = private unnamed_addr constant [2 x i8] c"\0A\00", align 1
@stdout = external global ptr, align 8
@.str.4 = private unnamed_addr constant [39 x i8] c"\0A %s: ERROR: Exception caught: \0A'%s'\0A\0A\00", align 1
@.str.5 = private unnamed_addr constant [46 x i8] c"\0A %s: ERROR: OpenCV Exception caught: \0A'%s'\0A\0A\00", align 1
@.str.6 = private unnamed_addr constant [117 x i8] c"DetectionBasedTracker: workcycleObjectDetectorFunction: ERROR concerning pointer, received as the function parameter\00", align 1

; Function Attrs: inlinehint mustprogress nounwind uwtable
define internal noundef i32 @_ZL18__gthread_active_pv() #1 {
  ret i32 1
}

; Function Attrs: inlinehint mustprogress uwtable
define internal noundef i32 @_ZL22__gthread_mutex_unlockP15pthread_mutex_t(ptr noundef %0) #11 {
  %2 = alloca i32, align 4
  %3 = alloca ptr, align 8
  store ptr %0, ptr %3, align 8, !tbaa !70
  %4 = call noundef i32 @_ZL18__gthread_active_pv()
  %5 = icmp ne i32 %4, 0
  br i1 %5, label %6, label %9

6:                                                ; preds = %1
  %7 = load ptr, ptr %3, align 8, !tbaa !70
  %8 = call i32 @pthread_mutex_unlock(ptr noundef %7) #12
  store i32 %8, ptr %2, align 4
  br label %10

9:                                                ; preds = %1
  store i32 0, ptr %2, align 4
  br label %10

10:                                               ; preds = %9, %6
  %11 = load i32, ptr %2, align 4
  ret i32 %11
}

; Function Attrs: inlinehint mustprogress nounwind uwtable
define internal noundef i32 @_ZL20__gthread_mutex_lockP15pthread_mutex_t(ptr noundef %0) #1 {
  %2 = alloca i32, align 4
  %3 = alloca ptr, align 8
  store ptr %0, ptr %3, align 8, !tbaa !70
  %4 = call noundef i32 @_ZL18__gthread_active_pv()
  %5 = icmp ne i32 %4, 0
  br i1 %5, label %6, label %9

6:                                                ; preds = %1
  %7 = load ptr, ptr %3, align 8, !tbaa !70
  %8 = call i32 @pthread_mutex_lock(ptr noundef %7) #12
  store i32 %8, ptr %2, align 4
  br label %10

9:                                                ; preds = %1
  store i32 0, ptr %2, align 4
  br label %10

10:                                               ; preds = %9, %6
  %11 = load i32, ptr %2, align 4
  ret i32 %11
}

; Function Attrs: mustprogress uwtable
define linkonce_odr hidden void @_ZNSt5mutex6unlockEv(ptr noundef nonnull align 8 dereferenceable(40) %0) #0 comdat align 2 {
  %2 = alloca ptr, align 8
  store ptr %0, ptr %2, align 8, !tbaa !56
  %3 = load ptr, ptr %2, align 8
  %4 = getelementptr inbounds nuw %"class.std::__mutex_base", ptr %3, i32 0, i32 0
  %5 = call noundef i32 @_ZL22__gthread_mutex_unlockP15pthread_mutex_t(ptr noundef %4)
  ret void
}

; Function Attrs: mustprogress uwtable
define linkonce_odr hidden void @_ZNSt5mutex4lockEv(ptr noundef nonnull align 8 dereferenceable(40) %0) #0 comdat align 2 {
  %2 = alloca ptr, align 8
  %3 = alloca i32, align 4
  store ptr %0, ptr %2, align 8, !tbaa !56
  %4 = load ptr, ptr %2, align 8
  call void @llvm.lifetime.start.p0(i64 4, ptr %3) #12
  %5 = getelementptr inbounds nuw %"class.std::__mutex_base", ptr %4, i32 0, i32 0
  %6 = call noundef i32 @_ZL20__gthread_mutex_lockP15pthread_mutex_t(ptr noundef %5)
  store i32 %6, ptr %3, align 4, !tbaa !53
  %7 = load i32, ptr %3, align 4, !tbaa !53
  %8 = icmp ne i32 %7, 0
  br i1 %8, label %9, label %11

9:                                                ; preds = %1
  %10 = load i32, ptr %3, align 4, !tbaa !53
  call void @_ZSt20__throw_system_errori(i32 noundef %10) #25
  unreachable

11:                                               ; preds = %1
  call void @llvm.lifetime.end.p0(i64 4, ptr %3) #12
  ret void
}

; Function Attrs: mustprogress uwtable
define linkonce_odr hidden void @_ZNSt11unique_lockISt5mutexE6unlockEv(ptr noundef nonnull align 8 dereferenceable(9) %0) #0 comdat align 2 {
  %2 = alloca ptr, align 8
  store ptr %0, ptr %2, align 8, !tbaa !71
  %3 = load ptr, ptr %2, align 8
  %4 = getelementptr inbounds nuw %"class.std::unique_lock", ptr %3, i32 0, i32 1
  %5 = load i8, ptr %4, align 8, !tbaa !75, !range !86, !noundef !87
  %6 = trunc i8 %5 to i1
  br i1 %6, label %8, label %7

7:                                                ; preds = %1
  call void @_ZSt20__throw_system_errori(i32 noundef 1) #25
  unreachable

8:                                                ; preds = %1
  %9 = getelementptr inbounds nuw %"class.std::unique_lock", ptr %3, i32 0, i32 0
  %10 = load ptr, ptr %9, align 8, !tbaa !73
  %11 = icmp ne ptr %10, null
  br i1 %11, label %12, label %16

12:                                               ; preds = %8
  %13 = getelementptr inbounds nuw %"class.std::unique_lock", ptr %3, i32 0, i32 0
  %14 = load ptr, ptr %13, align 8, !tbaa !73
  call void @_ZNSt5mutex6unlockEv(ptr noundef nonnull align 8 dereferenceable(40) %14)
  %15 = getelementptr inbounds nuw %"class.std::unique_lock", ptr %3, i32 0, i32 1
  store i8 0, ptr %15, align 8, !tbaa !75
  br label %16

16:                                               ; preds = %12, %8
  br label %17

17:                                               ; preds = %16
  ret void
}

; Function Attrs: mustprogress uwtable
define linkonce_odr hidden void @_ZNSt11unique_lockISt5mutexE4lockEv(ptr noundef nonnull align 8 dereferenceable(9) %0) #0 comdat align 2 {
  %2 = alloca ptr, align 8
  store ptr %0, ptr %2, align 8, !tbaa !71
  %3 = load ptr, ptr %2, align 8
  %4 = getelementptr inbounds nuw %"class.std::unique_lock", ptr %3, i32 0, i32 0
  %5 = load ptr, ptr %4, align 8, !tbaa !73
  %6 = icmp ne ptr %5, null
  br i1 %6, label %8, label %7

7:                                                ; preds = %1
  call void @_ZSt20__throw_system_errori(i32 noundef 1) #25
  unreachable

8:                                                ; preds = %1
  %9 = getelementptr inbounds nuw %"class.std::unique_lock", ptr %3, i32 0, i32 1
  %10 = load i8, ptr %9, align 8, !tbaa !75, !range !86, !noundef !87
  %11 = trunc i8 %10 to i1
  br i1 %11, label %12, label %13

12:                                               ; preds = %8
  call void @_ZSt20__throw_system_errori(i32 noundef 35) #25
  unreachable

13:                                               ; preds = %8
  %14 = getelementptr inbounds nuw %"class.std::unique_lock", ptr %3, i32 0, i32 0
  %15 = load ptr, ptr %14, align 8, !tbaa !73
  call void @_ZNSt5mutex4lockEv(ptr noundef nonnull align 8 dereferenceable(40) %15)
  %16 = getelementptr inbounds nuw %"class.std::unique_lock", ptr %3, i32 0, i32 1
  store i8 1, ptr %16, align 8, !tbaa !75
  br label %17

17:                                               ; preds = %13
  br label %18

18:                                               ; preds = %17
  ret void
}

; Function Attrs: mustprogress nounwind uwtable
define linkonce_odr hidden void @_ZNSt11unique_lockISt5mutexED2Ev(ptr noundef nonnull align 8 dereferenceable(9) %0) unnamed_addr #2 comdat align 2 personality ptr @__gxx_personality_v0 {
  %2 = alloca ptr, align 8
  store ptr %0, ptr %2, align 8, !tbaa !71
  %3 = load ptr, ptr %2, align 8
  %4 = getelementptr inbounds nuw %"class.std::unique_lock", ptr %3, i32 0, i32 1
  %5 = load i8, ptr %4, align 8, !tbaa !75, !range !86, !noundef !87
  %6 = trunc i8 %5 to i1
  br i1 %6, label %7, label %9

7:                                                ; preds = %1
  invoke void @_ZNSt11unique_lockISt5mutexE6unlockEv(ptr noundef nonnull align 8 dereferenceable(9) %3)
          to label %8 unwind label %10

8:                                                ; preds = %7
  br label %9

9:                                                ; preds = %8, %1
  ret void

10:                                               ; preds = %7
  %11 = landingpad { ptr, i32 }
          catch ptr null
  %12 = extractvalue { ptr, i32 } %11, 0
  call void @__clang_call_terminate(ptr %12) #26
  unreachable
}

; Function Attrs: mustprogress uwtable
define linkonce_odr hidden void @_ZNSt11unique_lockISt5mutexEC2ERS0_(ptr noundef nonnull align 8 dereferenceable(9) %0, ptr noundef nonnull align 8 dereferenceable(40) %1) unnamed_addr #0 comdat align 2 {
  %3 = alloca ptr, align 8
  %4 = alloca ptr, align 8
  store ptr %0, ptr %3, align 8, !tbaa !71
  store ptr %1, ptr %4, align 8, !tbaa !56
  %5 = load ptr, ptr %3, align 8
  %6 = getelementptr inbounds nuw %"class.std::unique_lock", ptr %5, i32 0, i32 0
  %7 = load ptr, ptr %4, align 8, !tbaa !56
  store ptr %7, ptr %6, align 8, !tbaa !73
  %8 = getelementptr inbounds nuw %"class.std::unique_lock", ptr %5, i32 0, i32 1
  store i8 0, ptr %8, align 8, !tbaa !75
  call void @_ZNSt11unique_lockISt5mutexE4lockEv(ptr noundef nonnull align 8 dereferenceable(9) %5)
  %9 = getelementptr inbounds nuw %"class.std::unique_lock", ptr %5, i32 0, i32 1
  store i8 1, ptr %9, align 8, !tbaa !75
  ret void
}

; Function Attrs: noinline noreturn nounwind uwtable
define linkonce_odr hidden void @__clang_call_terminate(ptr noundef %0) #8 comdat {
  %2 = call ptr @__cxa_begin_catch(ptr %0) #12
  call void @_ZSt9terminatev() #26
  unreachable
}

; Function Attrs: inlinehint mustprogress uwtable
define linkonce_odr hidden void @_ZN2cv21DetectionBasedTracker21SeparateDetectionWork4initEv(ptr noundef nonnull align 8 dereferenceable(320) %0) #11 comdat align 2 {
  %2 = alloca ptr, align 8
  %3 = alloca %"class.std::unique_lock", align 8
  store ptr %0, ptr %2, align 8, !tbaa !3
  %4 = load ptr, ptr %2, align 8
  call void @llvm.lifetime.start.p0(i64 16, ptr %3) #12
  %5 = getelementptr inbounds nuw %"class.cv::DetectionBasedTracker::SeparateDetectionWork", ptr %4, i32 0, i32 4
  call void @_ZNSt11unique_lockISt5mutexEC2ERS0_(ptr noundef nonnull align 8 dereferenceable(9) %3, ptr noundef nonnull align 8 dereferenceable(40) %5)
  %6 = getelementptr inbounds nuw %"class.cv::DetectionBasedTracker::SeparateDetectionWork", ptr %4, i32 0, i32 10
  store volatile i32 0, ptr %6, align 4, !tbaa !50
  %7 = getelementptr inbounds nuw %"class.cv::DetectionBasedTracker::SeparateDetectionWork", ptr %4, i32 0, i32 8
  store volatile i8 0, ptr %7, align 8, !tbaa !16
  %8 = getelementptr inbounds nuw %"class.cv::DetectionBasedTracker::SeparateDetectionWork", ptr %4, i32 0, i32 9
  store volatile i8 0, ptr %8, align 1, !tbaa !49
  %9 = getelementptr inbounds nuw %"class.cv::DetectionBasedTracker::SeparateDetectionWork", ptr %4, i32 0, i32 6
  call void @_ZNSt18condition_variable10notify_oneEv(ptr noundef nonnull align 8 dereferenceable(48) %9) #12
  call void @_ZNSt11unique_lockISt5mutexED2Ev(ptr noundef nonnull align 8 dereferenceable(9) %3) #12
  call void @llvm.lifetime.end.p0(i64 16, ptr %3) #12
  ret void
}

; Function Attrs: mustprogress uwtable
define hidden noundef ptr @_ZN2cv31workcycleObjectDetectorFunctionEPv(ptr noundef %0) #0 personality ptr @__gxx_personality_v0 {
  %2 = alloca ptr, align 8
  %3 = alloca ptr, align 8
  %4 = alloca i32, align 4
  %5 = alloca ptr, align 8
  %6 = alloca ptr, align 8
  store ptr %0, ptr %2, align 8, !tbaa !70
  %7 = load ptr, ptr %2, align 8, !tbaa !70
  invoke void @_ZN2cv21DetectionBasedTracker21SeparateDetectionWork23workcycleObjectDetectorEv(ptr noundef nonnull align 8 dereferenceable(320) %7)
          to label %8 unwind label %9

8:                                                ; preds = %1
  br label %32

9:                                                ; preds = %1
  %10 = landingpad { ptr, i32 }
          catch ptr @_ZTIN2cv9ExceptionE
          catch ptr @_ZTISt9exception
          catch ptr null
  %11 = extractvalue { ptr, i32 } %10, 0
  store ptr %11, ptr %3, align 8
  %12 = extractvalue { ptr, i32 } %10, 1
  store i32 %12, ptr %4, align 4
  br label %13

13:                                               ; preds = %9
  %14 = load i32, ptr %4, align 4
  %15 = call i32 @llvm.eh.typeid.for.p0(ptr @_ZTIN2cv9ExceptionE) #12
  %16 = icmp eq i32 %14, %15
  br i1 %16, label %17, label %35

17:                                               ; preds = %13
  call void @llvm.lifetime.start.p0(i64 8, ptr %6) #12
  %18 = load ptr, ptr %3, align 8
  %19 = call ptr @__cxa_begin_catch(ptr %18) #12
  store ptr %19, ptr %6, align 8
  %20 = load ptr, ptr %6, align 8, !tbaa !76
  %21 = load ptr, ptr %20, align 8, !tbaa !14
  %22 = getelementptr inbounds ptr, ptr %21, i64 2
  %23 = load ptr, ptr %22, align 8
  %24 = call noundef ptr %23(ptr noundef nonnull align 8 dereferenceable(148) %20) #12
  %25 = invoke i32 (ptr, ...) @printf(ptr noundef @.str.5, ptr noundef @__func__._ZN2cv31workcycleObjectDetectorFunctionEPv, ptr noundef %24)
          to label %26 unwind label %73

26:                                               ; preds = %17
  %27 = invoke i32 (ptr, ...) @printf(ptr noundef @.str.3)
          to label %28 unwind label %73

28:                                               ; preds = %26
  %29 = load ptr, ptr @stdout, align 8, !tbaa !78
  %30 = invoke i32 @fflush(ptr noundef %29)
          to label %31 unwind label %73

31:                                               ; preds = %28
  call void @__cxa_end_catch()
  call void @llvm.lifetime.end.p0(i64 8, ptr %6) #12
  br label %32

32:                                               ; preds = %31, %52, %62, %8
  %33 = load ptr, ptr %2, align 8, !tbaa !70
  invoke void @_ZN2cv21DetectionBasedTracker21SeparateDetectionWork4initEv(ptr noundef nonnull align 8 dereferenceable(320) %33)
          to label %34 unwind label %78

34:                                               ; preds = %32
  br label %92

35:                                               ; preds = %13
  %36 = call i32 @llvm.eh.typeid.for.p0(ptr @_ZTISt9exception) #12
  %37 = icmp eq i32 %14, %36
  br i1 %37, label %38, label %53

38:                                               ; preds = %35
  call void @llvm.lifetime.start.p0(i64 8, ptr %5) #12
  %39 = load ptr, ptr %3, align 8
  %40 = call ptr @__cxa_begin_catch(ptr %39) #12
  store ptr %40, ptr %5, align 8
  %41 = load ptr, ptr %5, align 8, !tbaa !80
  %42 = load ptr, ptr %41, align 8, !tbaa !14
  %43 = getelementptr inbounds ptr, ptr %42, i64 2
  %44 = load ptr, ptr %43, align 8
  %45 = call noundef ptr %44(ptr noundef nonnull align 8 dereferenceable(8) %41) #12
  %46 = invoke i32 (ptr, ...) @printf(ptr noundef @.str.4, ptr noundef @__func__._ZN2cv31workcycleObjectDetectorFunctionEPv, ptr noundef %45)
          to label %47 unwind label %68

47:                                               ; preds = %38
  %48 = invoke i32 (ptr, ...) @printf(ptr noundef @.str.3)
          to label %49 unwind label %68

49:                                               ; preds = %47
  %50 = load ptr, ptr @stdout, align 8, !tbaa !78
  %51 = invoke i32 @fflush(ptr noundef %50)
          to label %52 unwind label %68

52:                                               ; preds = %49
  call void @__cxa_end_catch()
  call void @llvm.lifetime.end.p0(i64 8, ptr %5) #12
  br label %32

53:                                               ; preds = %35
  %54 = load ptr, ptr %3, align 8
  %55 = call ptr @__cxa_begin_catch(ptr %54) #12
  %56 = invoke i32 (ptr, ...) @printf(ptr noundef @.str.2, ptr noundef @__func__._ZN2cv31workcycleObjectDetectorFunctionEPv)
          to label %57 unwind label %63

57:                                               ; preds = %53
  %58 = invoke i32 (ptr, ...) @printf(ptr noundef @.str.3)
          to label %59 unwind label %63

59:                                               ; preds = %57
  %60 = load ptr, ptr @stdout, align 8, !tbaa !78
  %61 = invoke i32 @fflush(ptr noundef %60)
          to label %62 unwind label %63

62:                                               ; preds = %59
  call void @__cxa_end_catch()
  br label %32

63:                                               ; preds = %59, %57, %53
  %64 = landingpad { ptr, i32 }
          cleanup
  %65 = extractvalue { ptr, i32 } %64, 0
  store ptr %65, ptr %3, align 8
  %66 = extractvalue { ptr, i32 } %64, 1
  store i32 %66, ptr %4, align 4
  invoke void @__cxa_end_catch()
          to label %67 unwind label %103

67:                                               ; preds = %63
  br label %98

68:                                               ; preds = %49, %47, %38
  %69 = landingpad { ptr, i32 }
          cleanup
  %70 = extractvalue { ptr, i32 } %69, 0
  store ptr %70, ptr %3, align 8
  %71 = extractvalue { ptr, i32 } %69, 1
  store i32 %71, ptr %4, align 4
  invoke void @__cxa_end_catch()
          to label %72 unwind label %103

72:                                               ; preds = %68
  call void @llvm.lifetime.end.p0(i64 8, ptr %5) #12
  br label %98

73:                                               ; preds = %28, %26, %17
  %74 = landingpad { ptr, i32 }
          cleanup
  %75 = extractvalue { ptr, i32 } %74, 0
  store ptr %75, ptr %3, align 8
  %76 = extractvalue { ptr, i32 } %74, 1
  store i32 %76, ptr %4, align 4
  invoke void @__cxa_end_catch()
          to label %77 unwind label %103

77:                                               ; preds = %73
  call void @llvm.lifetime.end.p0(i64 8, ptr %6) #12
  br label %98

78:                                               ; preds = %32
  %79 = landingpad { ptr, i32 }
          catch ptr null
  %80 = extractvalue { ptr, i32 } %79, 0
  store ptr %80, ptr %3, align 8
  %81 = extractvalue { ptr, i32 } %79, 1
  store i32 %81, ptr %4, align 4
  br label %82

82:                                               ; preds = %78
  %83 = load ptr, ptr %3, align 8
  %84 = call ptr @__cxa_begin_catch(ptr %83) #12
  %85 = invoke i32 (ptr, ...) @printf(ptr noundef @.str.6)
          to label %86 unwind label %93

86:                                               ; preds = %82
  %87 = invoke i32 (ptr, ...) @printf(ptr noundef @.str.3)
          to label %88 unwind label %93

88:                                               ; preds = %86
  %89 = load ptr, ptr @stdout, align 8, !tbaa !78
  %90 = invoke i32 @fflush(ptr noundef %89)
          to label %91 unwind label %93

91:                                               ; preds = %88
  call void @__cxa_end_catch()
  br label %92

92:                                               ; preds = %91, %34
  ret ptr null

93:                                               ; preds = %88, %86, %82
  %94 = landingpad { ptr, i32 }
          cleanup
  %95 = extractvalue { ptr, i32 } %94, 0
  store ptr %95, ptr %3, align 8
  %96 = extractvalue { ptr, i32 } %94, 1
  store i32 %96, ptr %4, align 4
  invoke void @__cxa_end_catch()
          to label %97 unwind label %103

97:                                               ; preds = %93
  br label %98

98:                                               ; preds = %97, %77, %72, %67
  %99 = load ptr, ptr %3, align 8
  %100 = load i32, ptr %4, align 4
  %101 = insertvalue { ptr, i32 } poison, ptr %99, 0
  %102 = insertvalue { ptr, i32 } %101, i32 %100, 1
  resume { ptr, i32 } %102

103:                                              ; preds = %93, %73, %68, %63
  %104 = landingpad { ptr, i32 }
          catch ptr null
  %105 = extractvalue { ptr, i32 } %104, 0
  call void @__clang_call_terminate(ptr %105) #26
  unreachable
}