; Function Attrs: mustprogress uwtable
define hidden noundef ptr @_ZN2cv31workcycleObjectDetectorFunctionEPv(ptr noundef nonnull %0) #0 personality ptr @__gxx_personality_v0 {
  invoke void @_ZN2cv21DetectionBasedTracker21SeparateDetectionWork23workcycleObjectDetectorEv(ptr noundef nonnull align 8 dereferenceable(320) %0)
          to label %17 unwind label %2

2:                                                ; preds = %1
  %3 = landingpad { ptr, i32 }
          catch ptr @_ZTIN2cv9ExceptionE
          catch ptr @_ZTISt9exception
          catch ptr null
  %4 = extractvalue { ptr, i32 } %3, 0
  %5 = extractvalue { ptr, i32 } %3, 1
  %6 = tail call i32 @llvm.eh.typeid.for.p0(ptr nonnull @_ZTIN2cv9ExceptionE) #26
  %7 = icmp eq i32 %5, %6
  br i1 %7, label %8, label %26

8:                                                ; preds = %2
  %9 = tail call ptr @__cxa_begin_catch(ptr %4) #26
  %10 = load ptr, ptr %9, align 8, !tbaa !3
  %11 = getelementptr inbounds nuw i8, ptr %10, i64 16
  %12 = load ptr, ptr %11, align 8
  %13 = tail call noundef ptr %12(ptr noundef nonnull align 8 dereferenceable(148) %9) #26
  %14 = tail call i32 (ptr, ...) @printf(ptr noundef nonnull dereferenceable(1) @.str.5, ptr noundef nonnull @__func__._ZN2cv31workcycleObjectDetectorFunctionEPv, ptr noundef %13)
  br label %.sink.split

.sink.split:                                      ; preds = %8, %30, %36
  %putchar = tail call i32 @putchar(i32 10)
  %15 = load ptr, ptr @stdout, align 8, !tbaa !72
  %16 = tail call i32 @fflush(ptr noundef %15)
  tail call void @__cxa_end_catch()
  br label %17

17:                                               ; preds = %.sink.split, %1
  %18 = getelementptr inbounds nuw i8, ptr %0, i64 40
  %19 = tail call noundef i32 @pthread_mutex_lock(ptr noundef nonnull align 8 dereferenceable(40) %18) #26
  %.not.i.i.i.i = icmp eq i32 %19, 0
  br i1 %.not.i.i.i.i, label %_ZN2cv21DetectionBasedTracker21SeparateDetectionWork4initEv.exit, label %20

20:                                               ; preds = %17
  invoke void @_ZSt20__throw_system_errori(i32 noundef %19) #27
          to label %.noexc unwind label %38

.noexc:                                           ; preds = %20
  unreachable

_ZN2cv21DetectionBasedTracker21SeparateDetectionWork4initEv.exit: ; preds = %17
  %21 = getelementptr inbounds nuw i8, ptr %0, i64 204
  store volatile i32 0, ptr %21, align 4, !tbaa !44
  %22 = getelementptr inbounds nuw i8, ptr %0, i64 200
  store volatile i8 0, ptr %22, align 8, !tbaa !10
  %23 = getelementptr inbounds nuw i8, ptr %0, i64 201
  store volatile i8 0, ptr %23, align 1, !tbaa !43
  %24 = getelementptr inbounds nuw i8, ptr %0, i64 128
  tail call void @_ZNSt18condition_variable10notify_oneEv(ptr noundef nonnull align 8 dereferenceable(48) %24) #26
  %25 = tail call noundef i32 @pthread_mutex_unlock(ptr noundef nonnull align 8 dereferenceable(40) %18) #26
  br label %45

26:                                               ; preds = %2
  %27 = tail call i32 @llvm.eh.typeid.for.p0(ptr nonnull @_ZTISt9exception) #26
  %28 = icmp eq i32 %5, %27
  %29 = tail call ptr @__cxa_begin_catch(ptr %4) #26
  br i1 %28, label %30, label %36

30:                                               ; preds = %26
  %31 = load ptr, ptr %29, align 8, !tbaa !3
  %32 = getelementptr inbounds nuw i8, ptr %31, i64 16
  %33 = load ptr, ptr %32, align 8
  %34 = tail call noundef ptr %33(ptr noundef nonnull align 8 dereferenceable(8) %29) #26
  %35 = tail call i32 (ptr, ...) @printf(ptr noundef nonnull dereferenceable(1) @.str.4, ptr noundef nonnull @__func__._ZN2cv31workcycleObjectDetectorFunctionEPv, ptr noundef %34)
  br label %.sink.split

36:                                               ; preds = %26
  %37 = tail call i32 (ptr, ...) @printf(ptr noundef nonnull dereferenceable(1) @.str.2, ptr noundef nonnull @__func__._ZN2cv31workcycleObjectDetectorFunctionEPv)
  br label %.sink.split

38:                                               ; preds = %20
  %39 = landingpad { ptr, i32 }
          catch ptr null
  %40 = extractvalue { ptr, i32 } %39, 0
  %41 = tail call ptr @__cxa_begin_catch(ptr %40) #26
  %42 = tail call i32 (ptr, ...) @printf(ptr noundef nonnull dereferenceable(1) @.str.6)
  %putchar10 = tail call i32 @putchar(i32 10)
  %43 = load ptr, ptr @stdout, align 8, !tbaa !72
  %44 = tail call i32 @fflush(ptr noundef %43)
  tail call void @__cxa_end_catch()
  br label %45

45:                                               ; preds = %_ZN2cv21DetectionBasedTracker21SeparateDetectionWork4initEv.exit, %38
  ret ptr null
}